ARM GAS  C:\Users\Ryans\AppData\Local\Temp\ccumKL8v.s 			page 1


   1              		.syntax unified
   2              		.cpu cortex-m3
   3              		.fpu softvfp
   4              		.eabi_attribute 20, 1
   5              		.eabi_attribute 21, 1
   6              		.eabi_attribute 23, 3
   7              		.eabi_attribute 24, 1
   8              		.eabi_attribute 25, 1
   9              		.eabi_attribute 26, 1
  10              		.eabi_attribute 30, 1
  11              		.eabi_attribute 34, 1
  12              		.eabi_attribute 18, 4
  13              		.thumb
  14              		.syntax unified
  15              		.file	"main.c"
  16              		.text
  17              	.Ltext0:
  18              		.cfi_sections	.debug_frame
  19              		.section	.text.LCD_Print_Data,"ax",%progbits
  20              		.align	2
  21              		.global	LCD_Print_Data
  22              		.thumb
  23              		.thumb_func
  24              		.type	LCD_Print_Data, %function
  25              	LCD_Print_Data:
  26              	.LFB64:
  27              		.file 1 "main.c"
   1:main.c        **** /* ========================================
   2:main.c        ****  *
   3:main.c        ****  * Copyright YOUR COMPANY, THE YEAR
   4:main.c        ****  * All Rights Reserved
   5:main.c        ****  * UNPUBLISHED, LICENSED SOFTWARE.
   6:main.c        ****  *
   7:main.c        ****  * CONFIDENTIAL AND PROPRIETARY INFORMATION
   8:main.c        ****  * WHICH IS THE PROPERTY OF your company.
   9:main.c        ****  *
  10:main.c        ****  * ========================================
  11:main.c        **** */
  12:main.c        **** #include "project.h"
  13:main.c        **** #include "math.h"
  14:main.c        **** #include "float.h"
  15:main.c        **** #include <stdio.h>
  16:main.c        **** 
  17:main.c        **** // value for r1 resistor
  18:main.c        **** #define R1 10000
  19:main.c        **** static float  R1_Voltage;
  20:main.c        **** static float R1_Volt_Float;
  21:main.c        **** static float R1_ADC_Result;
  22:main.c        **** static float totalCurrent;
  23:main.c        **** 
  24:main.c        **** 
  25:main.c        **** // thermistor values
  26:main.c        **** static float thermistor_voltage;
  27:main.c        **** static float thermistor_resistance;
  28:main.c        **** static float thermistor_ADC_Result;
  29:main.c        **** static float thermistor_Result_float;
  30:main.c        **** // temperature 
ARM GAS  C:\Users\Ryans\AppData\Local\Temp\ccumKL8v.s 			page 2


  31:main.c        **** static float Temperature;
  32:main.c        **** static char buffer1[25];
  33:main.c        **** static char buffer2[25];
  34:main.c        **** static double A  = .0012264528;
  35:main.c        **** static double B =  0.000219555231;
  36:main.c        **** static double C = 0.000000348815838;
  37:main.c        **** // declaring the prototype functions
  38:main.c        **** 
  39:main.c        **** void LCD_Init(void);
  40:main.c        **** void LCD_Command( unsigned char data );
  41:main.c        **** void LCD_Write_Data( unsigned char data);
  42:main.c        **** void LCD_Print_Data(unsigned char data);
  43:main.c        **** void LCD_Write_String(char *writedata, char length);
  44:main.c        **** void LCD_Pulse(void);
  45:main.c        **** void microSecondDelay( int delayTime);
  46:main.c        **** void LCD_Write_Num(char8 *writedata,int length);
  47:main.c        **** float thermistorResistance(void);
  48:main.c        **** float therm_Temp(void);
  49:main.c        **** 
  50:main.c        **** 
  51:main.c        **** typedef struct {
  52:main.c        ****   char D4_Pin;
  53:main.c        ****   char D5_Pin;
  54:main.c        ****   char D6_Pin;
  55:main.c        ****   char D7_Pin;
  56:main.c        **** } Datapins;
  57:main.c        **** Datapins DataLine;
  58:main.c        **** 
  59:main.c        **** void LCD_Print_Data(unsigned char data){
  28              		.loc 1 59 0
  29              		.cfi_startproc
  30              		@ args = 0, pretend = 0, frame = 0
  31              		@ frame_needed = 0, uses_anonymous_args = 0
  32              	.LVL0:
  33 0000 10B5     		push	{r4, lr}
  34              		.cfi_def_cfa_offset 8
  35              		.cfi_offset 4, -8
  36              		.cfi_offset 14, -4
  37 0002 0446     		mov	r4, r0
  60:main.c        ****  // setting the pins for sending the data to the LCD Display
  61:main.c        ****  
  62:main.c        ****  // D4 pin = bit 4 = 0x10
  63:main.c        ****  DataLine.D4_Pin = 0x10;
  38              		.loc 1 63 0
  39 0004 1022     		movs	r2, #16
  40 0006 194B     		ldr	r3, .L11
  41 0008 1A70     		strb	r2, [r3]
  64:main.c        **** if((data & DataLine.D4_Pin) == 0x10){
  42              		.loc 1 64 0
  43 000a 10F0100F 		tst	r0, #16
  44 000e 03D0     		beq	.L2
  65:main.c        ****     D4_Pin_11_Write(1);
  45              		.loc 1 65 0
  46 0010 0120     		movs	r0, #1
  47              	.LVL1:
  48 0012 FFF7FEFF 		bl	D4_Pin_11_Write
  49              	.LVL2:
ARM GAS  C:\Users\Ryans\AppData\Local\Temp\ccumKL8v.s 			page 3


  50 0016 02E0     		b	.L3
  51              	.LVL3:
  52              	.L2:
  66:main.c        ****  }
  67:main.c        **** else{
  68:main.c        ****      D4_Pin_11_Write(0);
  53              		.loc 1 68 0
  54 0018 0020     		movs	r0, #0
  55              	.LVL4:
  56 001a FFF7FEFF 		bl	D4_Pin_11_Write
  57              	.LVL5:
  58              	.L3:
  69:main.c        ****         
  70:main.c        **** }
  71:main.c        **** // D5 pin = bit 5 = 0x20
  72:main.c        **** DataLine.D5_Pin = 0x20;
  59              		.loc 1 72 0
  60 001e 2022     		movs	r2, #32
  61 0020 124B     		ldr	r3, .L11
  62 0022 5A70     		strb	r2, [r3, #1]
  73:main.c        **** if ((data & DataLine.D5_Pin) == 0x20){
  63              		.loc 1 73 0
  64 0024 14F0200F 		tst	r4, #32
  65 0028 03D0     		beq	.L4
  74:main.c        ****      D5_Pin_12_Write(1);
  66              		.loc 1 74 0
  67 002a 0120     		movs	r0, #1
  68 002c FFF7FEFF 		bl	D5_Pin_12_Write
  69              	.LVL6:
  70 0030 02E0     		b	.L5
  71              	.L4:
  75:main.c        **** }
  76:main.c        **** else{
  77:main.c        ****    D5_Pin_12_Write(0);
  72              		.loc 1 77 0
  73 0032 0020     		movs	r0, #0
  74 0034 FFF7FEFF 		bl	D5_Pin_12_Write
  75              	.LVL7:
  76              	.L5:
  78:main.c        **** }
  79:main.c        **** // D6 pin = bit 6 = 0x40
  80:main.c        **** DataLine.D6_Pin = 0x40;
  77              		.loc 1 80 0
  78 0038 4022     		movs	r2, #64
  79 003a 0C4B     		ldr	r3, .L11
  80 003c 9A70     		strb	r2, [r3, #2]
  81:main.c        **** if ((data & DataLine.D6_Pin) == 0x40){
  81              		.loc 1 81 0
  82 003e 14F0400F 		tst	r4, #64
  83 0042 03D0     		beq	.L6
  82:main.c        ****     D6_Pin_13_Write(1);
  84              		.loc 1 82 0
  85 0044 0120     		movs	r0, #1
  86 0046 FFF7FEFF 		bl	D6_Pin_13_Write
  87              	.LVL8:
  88 004a 02E0     		b	.L7
  89              	.L6:
ARM GAS  C:\Users\Ryans\AppData\Local\Temp\ccumKL8v.s 			page 4


  83:main.c        **** }
  84:main.c        **** else{
  85:main.c        ****     D6_Pin_13_Write(0);
  90              		.loc 1 85 0
  91 004c 0020     		movs	r0, #0
  92 004e FFF7FEFF 		bl	D6_Pin_13_Write
  93              	.LVL9:
  94              	.L7:
  86:main.c        **** }
  87:main.c        **** 
  88:main.c        **** // D7 pin = bit 7 = 0x80
  89:main.c        **** DataLine.D7_Pin = 0x80;
  95              		.loc 1 89 0
  96 0052 8022     		movs	r2, #128
  97 0054 054B     		ldr	r3, .L11
  98 0056 DA70     		strb	r2, [r3, #3]
  90:main.c        **** if ((data & DataLine.D7_Pin) == 0x80){
  99              		.loc 1 90 0
 100 0058 1440     		ands	r4, r4, r2
 101 005a 1CB1     		cbz	r4, .L8
  91:main.c        ****     D7_Pin_14_Write(1);
 102              		.loc 1 91 0
 103 005c 0120     		movs	r0, #1
 104 005e FFF7FEFF 		bl	D7_Pin_14_Write
 105              	.LVL10:
 106 0062 10BD     		pop	{r4, pc}
 107              	.L8:
  92:main.c        **** }
  93:main.c        **** else{
  94:main.c        ****     D7_Pin_14_Write(0);
 108              		.loc 1 94 0
 109 0064 0020     		movs	r0, #0
 110 0066 FFF7FEFF 		bl	D7_Pin_14_Write
 111              	.LVL11:
 112 006a 10BD     		pop	{r4, pc}
 113              	.L12:
 114              		.align	2
 115              	.L11:
 116 006c 00000000 		.word	DataLine
 117              		.cfi_endproc
 118              	.LFE64:
 119              		.size	LCD_Print_Data, .-LCD_Print_Data
 120              		.section	.text.LCD_Pulse,"ax",%progbits
 121              		.align	2
 122              		.global	LCD_Pulse
 123              		.thumb
 124              		.thumb_func
 125              		.type	LCD_Pulse, %function
 126              	LCD_Pulse:
 127              	.LFB70:
  95:main.c        **** }
  96:main.c        **** }
  97:main.c        **** 
  98:main.c        **** 
  99:main.c        **** 
 100:main.c        **** // making creating a structure needed to for data line access of LCD
 101:main.c        **** 
ARM GAS  C:\Users\Ryans\AppData\Local\Temp\ccumKL8v.s 			page 5


 102:main.c        **** 
 103:main.c        **** // building all the main functions for the program
 104:main.c        **** 
 105:main.c        **** void LCD_Init(void){
 106:main.c        ****   CyDelay(40u);
 107:main.c        ****   
 108:main.c        ****    LCD_Command(0x28);
 109:main.c        ****     
 110:main.c        ****    LCD_Command(0x10);
 111:main.c        ****    LCD_Command(0x0C);
 112:main.c        ****    LCD_Command(0x06);
 113:main.c        ****     CyDelay(5u);
 114:main.c        **** }
 115:main.c        **** 
 116:main.c        **** void LCD_Command(unsigned char data){
 117:main.c        ****     //LCD_Print_Data(data);
 118:main.c        ****     RS_Pin_4_Write(0);
 119:main.c        ****     R_W_Pin_5_Write(0);
 120:main.c        ****      LCD_Print_Data(data);
 121:main.c        ****     LCD_Pulse();
 122:main.c        ****     LCD_Print_Data(data << 4);
 123:main.c        ****    RS_Pin_4_Write(0);
 124:main.c        ****    R_W_Pin_5_Write(0);
 125:main.c        ****     LCD_Pulse();
 126:main.c        **** 
 127:main.c        **** }
 128:main.c        **** 
 129:main.c        **** void LCD_Write_Data(unsigned char data){
 130:main.c        ****     Enable_Pin_6_Write(0);
 131:main.c        ****     RS_Pin_4_Write(1);
 132:main.c        ****     R_W_Pin_5_Write(0);
 133:main.c        ****     CyDelayUs(0u);
 134:main.c        ****     LCD_Print_Data(0x00);
 135:main.c        ****     LCD_Print_Data(data);
 136:main.c        ****     LCD_Pulse();
 137:main.c        ****    // LCD_Print_Data(data <<4);
 138:main.c        ****     RS_Pin_4_Write(1);
 139:main.c        ****     R_W_Pin_5_Write(0);
 140:main.c        ****     LCD_Print_Data(data <<4);
 141:main.c        ****     LCD_Pulse();
 142:main.c        ****     
 143:main.c        **** }
 144:main.c        **** 
 145:main.c        **** 
 146:main.c        **** void LCD_Write_String(char *writedata,char length){
 147:main.c        ****     for ( unsigned int i = 0; i < length; i++){
 148:main.c        ****         LCD_Write_Data(writedata[i]);
 149:main.c        ****     }
 150:main.c        **** 
 151:main.c        **** }
 152:main.c        **** 
 153:main.c        **** void LCD_Write_Num(char8 *writedata,int length){
 154:main.c        ****     
 155:main.c        ****    
 156:main.c        ****     
 157:main.c        ****     for ( unsigned int i = 0; i < sizeof(length); i++){
 158:main.c        ****         LCD_Write_Data(writedata[i]);
ARM GAS  C:\Users\Ryans\AppData\Local\Temp\ccumKL8v.s 			page 6


 159:main.c        ****     }
 160:main.c        **** 
 161:main.c        **** }
 162:main.c        **** 
 163:main.c        **** void LCD_Pulse(void){
 128              		.loc 1 163 0
 129              		.cfi_startproc
 130              		@ args = 0, pretend = 0, frame = 0
 131              		@ frame_needed = 0, uses_anonymous_args = 0
 132 0000 08B5     		push	{r3, lr}
 133              		.cfi_def_cfa_offset 8
 134              		.cfi_offset 3, -8
 135              		.cfi_offset 14, -4
 164:main.c        ****  Enable_Pin_6_Write(1);
 136              		.loc 1 164 0
 137 0002 0120     		movs	r0, #1
 138 0004 FFF7FEFF 		bl	Enable_Pin_6_Write
 139              	.LVL12:
 165:main.c        **** CyDelay(1);
 140              		.loc 1 165 0
 141 0008 0120     		movs	r0, #1
 142 000a FFF7FEFF 		bl	CyDelay
 143              	.LVL13:
 166:main.c        **** Enable_Pin_6_Write(0);
 144              		.loc 1 166 0
 145 000e 0020     		movs	r0, #0
 146 0010 FFF7FEFF 		bl	Enable_Pin_6_Write
 147              	.LVL14:
 148 0014 08BD     		pop	{r3, pc}
 149              		.cfi_endproc
 150              	.LFE70:
 151              		.size	LCD_Pulse, .-LCD_Pulse
 152 0016 00BF     		.section	.text.LCD_Command,"ax",%progbits
 153              		.align	2
 154              		.global	LCD_Command
 155              		.thumb
 156              		.thumb_func
 157              		.type	LCD_Command, %function
 158              	LCD_Command:
 159              	.LFB66:
 116:main.c        ****     //LCD_Print_Data(data);
 160              		.loc 1 116 0
 161              		.cfi_startproc
 162              		@ args = 0, pretend = 0, frame = 0
 163              		@ frame_needed = 0, uses_anonymous_args = 0
 164              	.LVL15:
 165 0000 10B5     		push	{r4, lr}
 166              		.cfi_def_cfa_offset 8
 167              		.cfi_offset 4, -8
 168              		.cfi_offset 14, -4
 169 0002 0446     		mov	r4, r0
 118:main.c        ****     R_W_Pin_5_Write(0);
 170              		.loc 1 118 0
 171 0004 0020     		movs	r0, #0
 172              	.LVL16:
 173 0006 FFF7FEFF 		bl	RS_Pin_4_Write
 174              	.LVL17:
ARM GAS  C:\Users\Ryans\AppData\Local\Temp\ccumKL8v.s 			page 7


 119:main.c        ****      LCD_Print_Data(data);
 175              		.loc 1 119 0
 176 000a 0020     		movs	r0, #0
 177 000c FFF7FEFF 		bl	R_W_Pin_5_Write
 178              	.LVL18:
 120:main.c        ****     LCD_Pulse();
 179              		.loc 1 120 0
 180 0010 2046     		mov	r0, r4
 181 0012 FFF7FEFF 		bl	LCD_Print_Data
 182              	.LVL19:
 121:main.c        ****     LCD_Print_Data(data << 4);
 183              		.loc 1 121 0
 184 0016 FFF7FEFF 		bl	LCD_Pulse
 185              	.LVL20:
 122:main.c        ****    RS_Pin_4_Write(0);
 186              		.loc 1 122 0
 187 001a 2001     		lsls	r0, r4, #4
 188 001c 00F0F000 		and	r0, r0, #240
 189 0020 FFF7FEFF 		bl	LCD_Print_Data
 190              	.LVL21:
 123:main.c        ****    R_W_Pin_5_Write(0);
 191              		.loc 1 123 0
 192 0024 0020     		movs	r0, #0
 193 0026 FFF7FEFF 		bl	RS_Pin_4_Write
 194              	.LVL22:
 124:main.c        ****     LCD_Pulse();
 195              		.loc 1 124 0
 196 002a 0020     		movs	r0, #0
 197 002c FFF7FEFF 		bl	R_W_Pin_5_Write
 198              	.LVL23:
 125:main.c        **** 
 199              		.loc 1 125 0
 200 0030 FFF7FEFF 		bl	LCD_Pulse
 201              	.LVL24:
 202 0034 10BD     		pop	{r4, pc}
 203              		.cfi_endproc
 204              	.LFE66:
 205              		.size	LCD_Command, .-LCD_Command
 206 0036 00BF     		.section	.text.LCD_Init,"ax",%progbits
 207              		.align	2
 208              		.global	LCD_Init
 209              		.thumb
 210              		.thumb_func
 211              		.type	LCD_Init, %function
 212              	LCD_Init:
 213              	.LFB65:
 105:main.c        ****   CyDelay(40u);
 214              		.loc 1 105 0
 215              		.cfi_startproc
 216              		@ args = 0, pretend = 0, frame = 0
 217              		@ frame_needed = 0, uses_anonymous_args = 0
 218 0000 08B5     		push	{r3, lr}
 219              		.cfi_def_cfa_offset 8
 220              		.cfi_offset 3, -8
 221              		.cfi_offset 14, -4
 106:main.c        ****   
 222              		.loc 1 106 0
ARM GAS  C:\Users\Ryans\AppData\Local\Temp\ccumKL8v.s 			page 8


 223 0002 2820     		movs	r0, #40
 224 0004 FFF7FEFF 		bl	CyDelay
 225              	.LVL25:
 108:main.c        ****     
 226              		.loc 1 108 0
 227 0008 2820     		movs	r0, #40
 228 000a FFF7FEFF 		bl	LCD_Command
 229              	.LVL26:
 110:main.c        ****    LCD_Command(0x0C);
 230              		.loc 1 110 0
 231 000e 1020     		movs	r0, #16
 232 0010 FFF7FEFF 		bl	LCD_Command
 233              	.LVL27:
 111:main.c        ****    LCD_Command(0x06);
 234              		.loc 1 111 0
 235 0014 0C20     		movs	r0, #12
 236 0016 FFF7FEFF 		bl	LCD_Command
 237              	.LVL28:
 112:main.c        ****     CyDelay(5u);
 238              		.loc 1 112 0
 239 001a 0620     		movs	r0, #6
 240 001c FFF7FEFF 		bl	LCD_Command
 241              	.LVL29:
 113:main.c        **** }
 242              		.loc 1 113 0
 243 0020 0520     		movs	r0, #5
 244 0022 FFF7FEFF 		bl	CyDelay
 245              	.LVL30:
 246 0026 08BD     		pop	{r3, pc}
 247              		.cfi_endproc
 248              	.LFE65:
 249              		.size	LCD_Init, .-LCD_Init
 250              		.section	.text.LCD_Write_Data,"ax",%progbits
 251              		.align	2
 252              		.global	LCD_Write_Data
 253              		.thumb
 254              		.thumb_func
 255              		.type	LCD_Write_Data, %function
 256              	LCD_Write_Data:
 257              	.LFB67:
 129:main.c        ****     Enable_Pin_6_Write(0);
 258              		.loc 1 129 0
 259              		.cfi_startproc
 260              		@ args = 0, pretend = 0, frame = 0
 261              		@ frame_needed = 0, uses_anonymous_args = 0
 262              	.LVL31:
 263 0000 10B5     		push	{r4, lr}
 264              		.cfi_def_cfa_offset 8
 265              		.cfi_offset 4, -8
 266              		.cfi_offset 14, -4
 267 0002 0446     		mov	r4, r0
 130:main.c        ****     RS_Pin_4_Write(1);
 268              		.loc 1 130 0
 269 0004 0020     		movs	r0, #0
 270              	.LVL32:
 271 0006 FFF7FEFF 		bl	Enable_Pin_6_Write
 272              	.LVL33:
ARM GAS  C:\Users\Ryans\AppData\Local\Temp\ccumKL8v.s 			page 9


 131:main.c        ****     R_W_Pin_5_Write(0);
 273              		.loc 1 131 0
 274 000a 0120     		movs	r0, #1
 275 000c FFF7FEFF 		bl	RS_Pin_4_Write
 276              	.LVL34:
 132:main.c        ****     CyDelayUs(0u);
 277              		.loc 1 132 0
 278 0010 0020     		movs	r0, #0
 279 0012 FFF7FEFF 		bl	R_W_Pin_5_Write
 280              	.LVL35:
 133:main.c        ****     LCD_Print_Data(0x00);
 281              		.loc 1 133 0
 282 0016 0020     		movs	r0, #0
 283 0018 FFF7FEFF 		bl	CyDelayUs
 284              	.LVL36:
 134:main.c        ****     LCD_Print_Data(data);
 285              		.loc 1 134 0
 286 001c 0020     		movs	r0, #0
 287 001e FFF7FEFF 		bl	LCD_Print_Data
 288              	.LVL37:
 135:main.c        ****     LCD_Pulse();
 289              		.loc 1 135 0
 290 0022 2046     		mov	r0, r4
 291 0024 FFF7FEFF 		bl	LCD_Print_Data
 292              	.LVL38:
 136:main.c        ****    // LCD_Print_Data(data <<4);
 293              		.loc 1 136 0
 294 0028 FFF7FEFF 		bl	LCD_Pulse
 295              	.LVL39:
 138:main.c        ****     R_W_Pin_5_Write(0);
 296              		.loc 1 138 0
 297 002c 0120     		movs	r0, #1
 298 002e FFF7FEFF 		bl	RS_Pin_4_Write
 299              	.LVL40:
 139:main.c        ****     LCD_Print_Data(data <<4);
 300              		.loc 1 139 0
 301 0032 0020     		movs	r0, #0
 302 0034 FFF7FEFF 		bl	R_W_Pin_5_Write
 303              	.LVL41:
 140:main.c        ****     LCD_Pulse();
 304              		.loc 1 140 0
 305 0038 2001     		lsls	r0, r4, #4
 306 003a 00F0F000 		and	r0, r0, #240
 307 003e FFF7FEFF 		bl	LCD_Print_Data
 308              	.LVL42:
 141:main.c        ****     
 309              		.loc 1 141 0
 310 0042 FFF7FEFF 		bl	LCD_Pulse
 311              	.LVL43:
 312 0046 10BD     		pop	{r4, pc}
 313              		.cfi_endproc
 314              	.LFE67:
 315              		.size	LCD_Write_Data, .-LCD_Write_Data
 316              		.section	.text.LCD_Write_String,"ax",%progbits
 317              		.align	2
 318              		.global	LCD_Write_String
 319              		.thumb
ARM GAS  C:\Users\Ryans\AppData\Local\Temp\ccumKL8v.s 			page 10


 320              		.thumb_func
 321              		.type	LCD_Write_String, %function
 322              	LCD_Write_String:
 323              	.LFB68:
 146:main.c        ****     for ( unsigned int i = 0; i < length; i++){
 324              		.loc 1 146 0
 325              		.cfi_startproc
 326              		@ args = 0, pretend = 0, frame = 0
 327              		@ frame_needed = 0, uses_anonymous_args = 0
 328              	.LVL44:
 329 0000 70B5     		push	{r4, r5, r6, lr}
 330              		.cfi_def_cfa_offset 16
 331              		.cfi_offset 4, -16
 332              		.cfi_offset 5, -12
 333              		.cfi_offset 6, -8
 334              		.cfi_offset 14, -4
 335 0002 0646     		mov	r6, r0
 336 0004 0D46     		mov	r5, r1
 337              	.LVL45:
 338              	.LBB2:
 147:main.c        ****         LCD_Write_Data(writedata[i]);
 339              		.loc 1 147 0
 340 0006 0024     		movs	r4, #0
 341 0008 03E0     		b	.L22
 342              	.LVL46:
 343              	.L23:
 148:main.c        ****     }
 344              		.loc 1 148 0 discriminator 3
 345 000a 305D     		ldrb	r0, [r6, r4]	@ zero_extendqisi2
 346 000c FFF7FEFF 		bl	LCD_Write_Data
 347              	.LVL47:
 147:main.c        ****         LCD_Write_Data(writedata[i]);
 348              		.loc 1 147 0 discriminator 3
 349 0010 0134     		adds	r4, r4, #1
 350              	.LVL48:
 351              	.L22:
 147:main.c        ****         LCD_Write_Data(writedata[i]);
 352              		.loc 1 147 0 is_stmt 0 discriminator 1
 353 0012 AC42     		cmp	r4, r5
 354 0014 F9D3     		bcc	.L23
 355              	.LBE2:
 151:main.c        **** 
 356              		.loc 1 151 0 is_stmt 1
 357 0016 70BD     		pop	{r4, r5, r6, pc}
 358              		.cfi_endproc
 359              	.LFE68:
 360              		.size	LCD_Write_String, .-LCD_Write_String
 361              		.section	.text.LCD_Write_Num,"ax",%progbits
 362              		.align	2
 363              		.global	LCD_Write_Num
 364              		.thumb
 365              		.thumb_func
 366              		.type	LCD_Write_Num, %function
 367              	LCD_Write_Num:
 368              	.LFB69:
 153:main.c        ****     
 369              		.loc 1 153 0
ARM GAS  C:\Users\Ryans\AppData\Local\Temp\ccumKL8v.s 			page 11


 370              		.cfi_startproc
 371              		@ args = 0, pretend = 0, frame = 0
 372              		@ frame_needed = 0, uses_anonymous_args = 0
 373              	.LVL49:
 374 0000 38B5     		push	{r3, r4, r5, lr}
 375              		.cfi_def_cfa_offset 16
 376              		.cfi_offset 3, -16
 377              		.cfi_offset 4, -12
 378              		.cfi_offset 5, -8
 379              		.cfi_offset 14, -4
 380 0002 0546     		mov	r5, r0
 381              	.LVL50:
 382              	.LBB3:
 157:main.c        ****         LCD_Write_Data(writedata[i]);
 383              		.loc 1 157 0
 384 0004 0024     		movs	r4, #0
 385 0006 03E0     		b	.L26
 386              	.LVL51:
 387              	.L27:
 158:main.c        ****     }
 388              		.loc 1 158 0 discriminator 3
 389 0008 285D     		ldrb	r0, [r5, r4]	@ zero_extendqisi2
 390 000a FFF7FEFF 		bl	LCD_Write_Data
 391              	.LVL52:
 157:main.c        ****         LCD_Write_Data(writedata[i]);
 392              		.loc 1 157 0 discriminator 3
 393 000e 0134     		adds	r4, r4, #1
 394              	.LVL53:
 395              	.L26:
 157:main.c        ****         LCD_Write_Data(writedata[i]);
 396              		.loc 1 157 0 is_stmt 0 discriminator 1
 397 0010 032C     		cmp	r4, #3
 398 0012 F9D9     		bls	.L27
 399              	.LBE3:
 161:main.c        **** 
 400              		.loc 1 161 0 is_stmt 1
 401 0014 38BD     		pop	{r3, r4, r5, pc}
 402              		.cfi_endproc
 403              	.LFE69:
 404              		.size	LCD_Write_Num, .-LCD_Write_Num
 405 0016 00BF     		.section	.text.microSecondDelay,"ax",%progbits
 406              		.align	2
 407              		.global	microSecondDelay
 408              		.thumb
 409              		.thumb_func
 410              		.type	microSecondDelay, %function
 411              	microSecondDelay:
 412              	.LFB71:
 167:main.c        ****     
 168:main.c        **** }
 169:main.c        **** 
 170:main.c        **** void microSecondDelay( int delayTime){
 413              		.loc 1 170 0
 414              		.cfi_startproc
 415              		@ args = 0, pretend = 0, frame = 0
 416              		@ frame_needed = 0, uses_anonymous_args = 0
 417              		@ link register save eliminated.
ARM GAS  C:\Users\Ryans\AppData\Local\Temp\ccumKL8v.s 			page 12


 418              	.LVL54:
 419              	.LBB4:
 171:main.c        ****     for (int i = 0; i < delayTime; i++){
 420              		.loc 1 171 0
 421 0000 0023     		movs	r3, #0
 422 0002 00E0     		b	.L30
 423              	.LVL55:
 424              	.L31:
 425              		.loc 1 171 0 is_stmt 0 discriminator 3
 426 0004 0133     		adds	r3, r3, #1
 427              	.LVL56:
 428              	.L30:
 429              		.loc 1 171 0 discriminator 1
 430 0006 8342     		cmp	r3, r0
 431 0008 FCDB     		blt	.L31
 432              	.LBE4:
 172:main.c        ****         
 173:main.c        ****     }
 174:main.c        ****     
 175:main.c        **** }   
 433              		.loc 1 175 0 is_stmt 1
 434 000a 7047     		bx	lr
 435              		.cfi_endproc
 436              	.LFE71:
 437              		.size	microSecondDelay, .-microSecondDelay
 438              		.global	__aeabi_i2f
 439              		.global	__aeabi_f2iz
 440              		.global	__aeabi_fdiv
 441              		.section	.text.thermistorResistance,"ax",%progbits
 442              		.align	2
 443              		.global	thermistorResistance
 444              		.thumb
 445              		.thumb_func
 446              		.type	thermistorResistance, %function
 447              	thermistorResistance:
 448              	.LFB72:
 176:main.c        **** 
 177:main.c        **** float thermistorResistance(void){
 449              		.loc 1 177 0
 450              		.cfi_startproc
 451              		@ args = 0, pretend = 0, frame = 0
 452              		@ frame_needed = 0, uses_anonymous_args = 0
 453 0000 10B5     		push	{r4, lr}
 454              		.cfi_def_cfa_offset 8
 455              		.cfi_offset 4, -8
 456              		.cfi_offset 14, -4
 178:main.c        ****     // calculating the current for R1 resistor 
 179:main.c        ****     AMux_1_Select(0);
 457              		.loc 1 179 0
 458 0002 0020     		movs	r0, #0
 459 0004 FFF7FEFF 		bl	AMux_1_Select
 460              	.LVL57:
 180:main.c        ****     ADC_DelSig_1_StartConvert();
 461              		.loc 1 180 0
 462 0008 FFF7FEFF 		bl	ADC_DelSig_1_StartConvert
 463              	.LVL58:
 181:main.c        ****     ADC_DelSig_1_IsEndConversion(ADC_DelSig_1_WAIT_FOR_RESULT);
ARM GAS  C:\Users\Ryans\AppData\Local\Temp\ccumKL8v.s 			page 13


 464              		.loc 1 181 0
 465 000c 0020     		movs	r0, #0
 466 000e FFF7FEFF 		bl	ADC_DelSig_1_IsEndConversion
 467              	.LVL59:
 182:main.c        ****     R1_ADC_Result = (float) ADC_DelSig_1_GetResult16();
 468              		.loc 1 182 0
 469 0012 FFF7FEFF 		bl	ADC_DelSig_1_GetResult16
 470              	.LVL60:
 471 0016 FFF7FEFF 		bl	__aeabi_i2f
 472              	.LVL61:
 183:main.c        ****     R1_Volt_Float = (int16) ADC_DelSig_1_CountsTo_mVolts(R1_ADC_Result);
 473              		.loc 1 183 0
 474 001a FFF7FEFF 		bl	__aeabi_f2iz
 475              	.LVL62:
 476 001e FFF7FEFF 		bl	ADC_DelSig_1_CountsTo_mVolts
 477              	.LVL63:
 478 0022 FFF7FEFF 		bl	__aeabi_i2f
 479              	.LVL64:
 184:main.c        ****     R1_Voltage = (float) R1_Volt_Float; // voltage used to calculate the current of R1 and Thermist
 185:main.c        ****     totalCurrent = (R1_Voltage / R1);  // total current of the system 
 480              		.loc 1 185 0
 481 0026 0D49     		ldr	r1, .L34
 482 0028 FFF7FEFF 		bl	__aeabi_fdiv
 483              	.LVL65:
 484 002c 0C4C     		ldr	r4, .L34+4
 485 002e 2060     		str	r0, [r4]	@ float
 186:main.c        ****     
 187:main.c        ****     // calculating voltage for the thermistor 
 188:main.c        ****     AMux_1_Select(1);
 486              		.loc 1 188 0
 487 0030 0120     		movs	r0, #1
 488 0032 FFF7FEFF 		bl	AMux_1_Select
 489              	.LVL66:
 189:main.c        ****     ADC_DelSig_1_StartConvert();
 490              		.loc 1 189 0
 491 0036 FFF7FEFF 		bl	ADC_DelSig_1_StartConvert
 492              	.LVL67:
 190:main.c        ****     ADC_DelSig_1_IsEndConversion(ADC_DelSig_1_WAIT_FOR_RESULT);
 493              		.loc 1 190 0
 494 003a 0020     		movs	r0, #0
 495 003c FFF7FEFF 		bl	ADC_DelSig_1_IsEndConversion
 496              	.LVL68:
 191:main.c        ****     thermistor_ADC_Result = (float) ADC_DelSig_1_GetResult16();
 497              		.loc 1 191 0
 498 0040 FFF7FEFF 		bl	ADC_DelSig_1_GetResult16
 499              	.LVL69:
 500 0044 FFF7FEFF 		bl	__aeabi_i2f
 501              	.LVL70:
 192:main.c        ****     thermistor_Result_float = (int16) ADC_DelSig_1_CountsTo_mVolts(thermistor_ADC_Result);
 502              		.loc 1 192 0
 503 0048 FFF7FEFF 		bl	__aeabi_f2iz
 504              	.LVL71:
 505 004c FFF7FEFF 		bl	ADC_DelSig_1_CountsTo_mVolts
 506              	.LVL72:
 507 0050 FFF7FEFF 		bl	__aeabi_i2f
 508              	.LVL73:
 193:main.c        ****     thermistor_voltage = (float) thermistor_Result_float;
ARM GAS  C:\Users\Ryans\AppData\Local\Temp\ccumKL8v.s 			page 14


 194:main.c        ****     
 195:main.c        ****     // calculating thermistor resistance 
 196:main.c        ****     
 197:main.c        ****     thermistor_resistance = (thermistor_voltage / totalCurrent);
 509              		.loc 1 197 0
 510 0054 2168     		ldr	r1, [r4]	@ float
 511 0056 FFF7FEFF 		bl	__aeabi_fdiv
 512              	.LVL74:
 198:main.c        ****     
 199:main.c        ****     
 200:main.c        ****     
 201:main.c        ****  return  thermistor_resistance;
 202:main.c        **** }
 513              		.loc 1 202 0
 514 005a 10BD     		pop	{r4, pc}
 515              	.L35:
 516              		.align	2
 517              	.L34:
 518 005c 00401C46 		.word	1176256512
 519 0060 00000000 		.word	.LANCHOR0
 520              		.cfi_endproc
 521              	.LFE72:
 522              		.size	thermistorResistance, .-thermistorResistance
 523              		.global	__aeabi_f2d
 524              		.global	__aeabi_dmul
 525              		.global	__aeabi_dadd
 526              		.global	__aeabi_ddiv
 527              		.global	__aeabi_d2f
 528              		.global	__aeabi_dsub
 529              		.section	.text.therm_Temp,"ax",%progbits
 530              		.align	2
 531              		.global	therm_Temp
 532              		.thumb
 533              		.thumb_func
 534              		.type	therm_Temp, %function
 535              	therm_Temp:
 536              	.LFB73:
 203:main.c        **** 
 204:main.c        **** float therm_Temp(void){
 537              		.loc 1 204 0
 538              		.cfi_startproc
 539              		@ args = 0, pretend = 0, frame = 0
 540              		@ frame_needed = 0, uses_anonymous_args = 0
 541 0000 38B5     		push	{r3, r4, r5, lr}
 542              		.cfi_def_cfa_offset 16
 543              		.cfi_offset 3, -16
 544              		.cfi_offset 4, -12
 545              		.cfi_offset 5, -8
 546              		.cfi_offset 14, -4
 205:main.c        ****     
 206:main.c        ****     // calculating the temperature 
 207:main.c        ****     Temperature = 1 / (A + (B*log(thermistorResistance()))  + (C*pow(log(thermistorResistance()),3)
 547              		.loc 1 207 0
 548 0002 FFF7FEFF 		bl	thermistorResistance
 549              	.LVL75:
 550 0006 FFF7FEFF 		bl	__aeabi_f2d
 551              	.LVL76:
ARM GAS  C:\Users\Ryans\AppData\Local\Temp\ccumKL8v.s 			page 15


 552 000a FFF7FEFF 		bl	log
 553              	.LVL77:
 554 000e 22A3     		adr	r3, .L38
 555 0010 D3E90023 		ldrd	r2, [r3]
 556 0014 FFF7FEFF 		bl	__aeabi_dmul
 557              	.LVL78:
 558 0018 21A3     		adr	r3, .L38+8
 559 001a D3E90023 		ldrd	r2, [r3]
 560 001e FFF7FEFF 		bl	__aeabi_dadd
 561              	.LVL79:
 562 0022 0446     		mov	r4, r0
 563 0024 0D46     		mov	r5, r1
 564 0026 FFF7FEFF 		bl	thermistorResistance
 565              	.LVL80:
 566 002a FFF7FEFF 		bl	__aeabi_f2d
 567              	.LVL81:
 568 002e FFF7FEFF 		bl	log
 569              	.LVL82:
 570 0032 0022     		movs	r2, #0
 571 0034 204B     		ldr	r3, .L38+32
 572 0036 FFF7FEFF 		bl	pow
 573              	.LVL83:
 574 003a 1BA3     		adr	r3, .L38+16
 575 003c D3E90023 		ldrd	r2, [r3]
 576 0040 FFF7FEFF 		bl	__aeabi_dmul
 577              	.LVL84:
 578 0044 0246     		mov	r2, r0
 579 0046 0B46     		mov	r3, r1
 580 0048 2046     		mov	r0, r4
 581 004a 2946     		mov	r1, r5
 582 004c FFF7FEFF 		bl	__aeabi_dadd
 583              	.LVL85:
 584 0050 0246     		mov	r2, r0
 585 0052 0B46     		mov	r3, r1
 586 0054 0020     		movs	r0, #0
 587 0056 1949     		ldr	r1, .L38+36
 588 0058 FFF7FEFF 		bl	__aeabi_ddiv
 589              	.LVL86:
 590 005c FFF7FEFF 		bl	__aeabi_d2f
 591              	.LVL87:
 208:main.c        ****     Temperature = Temperature - 273.15;  // in celsius 
 592              		.loc 1 208 0
 593 0060 FFF7FEFF 		bl	__aeabi_f2d
 594              	.LVL88:
 595 0064 12A3     		adr	r3, .L38+24
 596 0066 D3E90023 		ldrd	r2, [r3]
 597 006a FFF7FEFF 		bl	__aeabi_dsub
 598              	.LVL89:
 599 006e FFF7FEFF 		bl	__aeabi_d2f
 600              	.LVL90:
 209:main.c        ****     Temperature = (Temperature * 9.0) / 5.0 + 32.0; // in farenheit
 601              		.loc 1 209 0
 602 0072 FFF7FEFF 		bl	__aeabi_f2d
 603              	.LVL91:
 604 0076 0022     		movs	r2, #0
 605 0078 114B     		ldr	r3, .L38+40
 606 007a FFF7FEFF 		bl	__aeabi_dmul
ARM GAS  C:\Users\Ryans\AppData\Local\Temp\ccumKL8v.s 			page 16


 607              	.LVL92:
 608 007e 0022     		movs	r2, #0
 609 0080 104B     		ldr	r3, .L38+44
 610 0082 FFF7FEFF 		bl	__aeabi_ddiv
 611              	.LVL93:
 612 0086 0022     		movs	r2, #0
 613 0088 0F4B     		ldr	r3, .L38+48
 614 008a FFF7FEFF 		bl	__aeabi_dadd
 615              	.LVL94:
 616 008e FFF7FEFF 		bl	__aeabi_d2f
 617              	.LVL95:
 210:main.c        ****     
 211:main.c        ****    
 212:main.c        ****     return  Temperature;
 213:main.c        **** }
 618              		.loc 1 213 0
 619 0092 38BD     		pop	{r3, r4, r5, pc}
 620              	.L39:
 621 0094 AFF30080 		.align	3
 622              	.L38:
 623 0098 FBDAD812 		.word	316201723
 624 009c 0DC72C3F 		.word	1059899149
 625 00a0 012EA1AA 		.word	-1432277503
 626 00a4 1D18543F 		.word	1062475805
 627 00a8 206A8247 		.word	1199729184
 628 00ac 9C68973E 		.word	1050110108
 629 00b0 66666666 		.word	1717986918
 630 00b4 66127140 		.word	1081152102
 631 00b8 00000840 		.word	1074266112
 632 00bc 0000F03F 		.word	1072693248
 633 00c0 00002240 		.word	1075970048
 634 00c4 00001440 		.word	1075052544
 635 00c8 00004040 		.word	1077936128
 636              		.cfi_endproc
 637              	.LFE73:
 638              		.size	therm_Temp, .-therm_Temp
 639              		.section	.text.main,"ax",%progbits
 640              		.align	2
 641              		.global	main
 642              		.thumb
 643              		.thumb_func
 644              		.type	main, %function
 645              	main:
 646              	.LFB74:
 214:main.c        **** 
 215:main.c        **** int main(void)
 216:main.c        **** {
 647              		.loc 1 216 0
 648              		.cfi_startproc
 649              		@ Volatile: function does not return.
 650              		@ args = 0, pretend = 0, frame = 0
 651              		@ frame_needed = 0, uses_anonymous_args = 0
 652 0000 08B5     		push	{r3, lr}
 653              		.cfi_def_cfa_offset 8
 654              		.cfi_offset 3, -8
 655              		.cfi_offset 14, -4
 217:main.c        ****     //GlobalIntEnable; /* Enable global interrupts. */
ARM GAS  C:\Users\Ryans\AppData\Local\Temp\ccumKL8v.s 			page 17


 218:main.c        ****    // start up functions for program LCD, AMUX and ADC
 219:main.c        ****     ADC_DelSig_1_Start();
 656              		.loc 1 219 0
 657 0002 FFF7FEFF 		bl	ADC_DelSig_1_Start
 658              	.LVL96:
 220:main.c        ****     AMux_1_Start();
 659              		.loc 1 220 0
 660 0006 FFF7FEFF 		bl	AMux_1_Start
 661              	.LVL97:
 221:main.c        ****     LCD_Init();
 662              		.loc 1 221 0
 663 000a FFF7FEFF 		bl	LCD_Init
 664              	.LVL98:
 665              	.L41:
 222:main.c        ****    
 223:main.c        ****    while(1){
 224:main.c        ****     //thermistorResistance();
 225:main.c        ****     //therm_Temp();
 226:main.c        ****      sprintf(buffer1, "Temperature:%.2f",therm_Temp());
 666              		.loc 1 226 0 discriminator 1
 667 000e FFF7FEFF 		bl	therm_Temp
 668              	.LVL99:
 669 0012 FFF7FEFF 		bl	__aeabi_f2d
 670              	.LVL100:
 671 0016 134C     		ldr	r4, .L43
 672 0018 251D     		adds	r5, r4, #4
 673 001a 0246     		mov	r2, r0
 674 001c 0B46     		mov	r3, r1
 675 001e 1249     		ldr	r1, .L43+4
 676 0020 2846     		mov	r0, r5
 677 0022 FFF7FEFF 		bl	sprintf
 678              	.LVL101:
 227:main.c        ****      sprintf(buffer2, "Resistance:%.2f",thermistorResistance());
 679              		.loc 1 227 0 discriminator 1
 680 0026 FFF7FEFF 		bl	thermistorResistance
 681              	.LVL102:
 682 002a FFF7FEFF 		bl	__aeabi_f2d
 683              	.LVL103:
 684 002e 2034     		adds	r4, r4, #32
 685 0030 0246     		mov	r2, r0
 686 0032 0B46     		mov	r3, r1
 687 0034 0D49     		ldr	r1, .L43+8
 688 0036 2046     		mov	r0, r4
 689 0038 FFF7FEFF 		bl	sprintf
 690              	.LVL104:
 228:main.c        ****     
 229:main.c        ****    LCD_Command(0x80);
 691              		.loc 1 229 0 discriminator 1
 692 003c 8020     		movs	r0, #128
 693 003e FFF7FEFF 		bl	LCD_Command
 694              	.LVL105:
 230:main.c        ****    LCD_Write_String(buffer1,22);
 695              		.loc 1 230 0 discriminator 1
 696 0042 1621     		movs	r1, #22
 697 0044 2846     		mov	r0, r5
 698 0046 FFF7FEFF 		bl	LCD_Write_String
 699              	.LVL106:
ARM GAS  C:\Users\Ryans\AppData\Local\Temp\ccumKL8v.s 			page 18


 231:main.c        ****    LCD_Command(0xC0);
 700              		.loc 1 231 0 discriminator 1
 701 004a C020     		movs	r0, #192
 702 004c FFF7FEFF 		bl	LCD_Command
 703              	.LVL107:
 232:main.c        ****    LCD_Write_String(buffer2,22);
 704              		.loc 1 232 0 discriminator 1
 705 0050 1621     		movs	r1, #22
 706 0052 2046     		mov	r0, r4
 707 0054 FFF7FEFF 		bl	LCD_Write_String
 708              	.LVL108:
 233:main.c        ****   
 234:main.c        ****     CyDelay(2000);
 709              		.loc 1 234 0 discriminator 1
 710 0058 4FF4FA60 		mov	r0, #2000
 711 005c FFF7FEFF 		bl	CyDelay
 712              	.LVL109:
 713 0060 D5E7     		b	.L41
 714              	.L44:
 715 0062 00BF     		.align	2
 716              	.L43:
 717 0064 00000000 		.word	.LANCHOR0
 718 0068 00000000 		.word	.LC0
 719 006c 14000000 		.word	.LC1
 720              		.cfi_endproc
 721              	.LFE74:
 722              		.size	main, .-main
 723              		.comm	DataLine,4,4
 724              		.section	.rodata.str1.4,"aMS",%progbits,1
 725              		.align	2
 726              	.LC0:
 727 0000 54656D70 		.ascii	"Temperature:%.2f\000"
 727      65726174 
 727      7572653A 
 727      252E3266 
 727      00
 728 0011 000000   		.space	3
 729              	.LC1:
 730 0014 52657369 		.ascii	"Resistance:%.2f\000"
 730      7374616E 
 730      63653A25 
 730      2E326600 
 731              		.bss
 732              		.align	2
 733              		.set	.LANCHOR0,. + 0
 734              		.type	totalCurrent, %object
 735              		.size	totalCurrent, 4
 736              	totalCurrent:
 737 0000 00000000 		.space	4
 738              		.type	buffer1, %object
 739              		.size	buffer1, 25
 740              	buffer1:
 741 0004 00000000 		.space	25
 741      00000000 
 741      00000000 
 741      00000000 
 741      00000000 
ARM GAS  C:\Users\Ryans\AppData\Local\Temp\ccumKL8v.s 			page 19


 742 001d 000000   		.space	3
 743              		.type	buffer2, %object
 744              		.size	buffer2, 25
 745              	buffer2:
 746 0020 00000000 		.space	25
 746      00000000 
 746      00000000 
 746      00000000 
 746      00000000 
 747              		.text
 748              	.Letext0:
 749              		.file 2 "d:\\psoc creator\\4.4\\psoc creator\\import\\gnu\\arm\\5.4.1\\arm-none-eabi\\include\\mac
 750              		.file 3 "d:\\psoc creator\\4.4\\psoc creator\\import\\gnu\\arm\\5.4.1\\arm-none-eabi\\include\\sys
 751              		.file 4 "Generated_Source\\PSoC5/cytypes.h"
 752              		.file 5 "Generated_Source\\PSoC5/core_cm3.h"
 753              		.file 6 "Generated_Source\\PSoC5/D4_Pin_11.h"
 754              		.file 7 "Generated_Source\\PSoC5/D5_Pin_12.h"
 755              		.file 8 "Generated_Source\\PSoC5/D6_Pin_13.h"
 756              		.file 9 "Generated_Source\\PSoC5/D7_Pin_14.h"
 757              		.file 10 "Generated_Source\\PSoC5/Enable_Pin_6.h"
 758              		.file 11 "Generated_Source\\PSoC5/CyLib.h"
 759              		.file 12 "Generated_Source\\PSoC5/RS_Pin_4.h"
 760              		.file 13 "Generated_Source\\PSoC5/R_W_Pin_5.h"
 761              		.file 14 "Generated_Source\\PSoC5/AMux_1.h"
 762              		.file 15 "Generated_Source\\PSoC5/ADC_DelSig_1.h"
 763              		.file 16 "d:\\psoc creator\\4.4\\psoc creator\\import\\gnu\\arm\\5.4.1\\arm-none-eabi\\include\\ma
 764              		.file 17 "d:\\psoc creator\\4.4\\psoc creator\\import\\gnu\\arm\\5.4.1\\arm-none-eabi\\include\\st